target datalayout = "e-m:e-p270:32:32-p271:32:32-p272:64:64-i64:64-i128:128-f80:128-n8:16:32:64-S128"
target triple = "x86_64-pc-linux-gnu"

@proto_register_usbip.ett = internal global [3 x ptr] [ptr @ett_usbip, ptr @ett_usbip_dev, ptr @ett_usbip_intf], align 16
@.str.97 = private unnamed_addr constant [15 x i8] c"USBIP Protocol\00", align 1
@.str.98 = private unnamed_addr constant [6 x i8] c"USBIP\00", align 1
@.str.99 = private unnamed_addr constant [6 x i8] c"usbip\00", align 1
@proto_usbip = internal global i32 0, align 4
@usbip_handle = internal global ptr null, align 8

; Function Attrs: null_pointer_is_valid sspstrong uwtable
define hidden void @proto_register_usbip() #0 {
  %1 = alloca ptr, align 8
  call void @llvm.lifetime.start.p0(i64 8, ptr %1) #5
  %2 = call i32 @proto_register_protocol(ptr noundef @.str.97, ptr noundef @.str.98, ptr noundef @.str.99)
  store i32 %2, ptr @proto_usbip, align 4
  %3 = load i32, ptr @proto_usbip, align 4
  call void @proto_register_field_array(i32 noundef %3, ptr noundef @proto_register_usbip.hf, i32 noundef 41)
  call void @proto_register_subtree_array(ptr noundef @proto_register_usbip.ett, i32 noundef 3)
  %4 = load i32, ptr @proto_usbip, align 4
  %5 = call ptr @register_dissector(ptr noundef @.str.99, ptr noundef @dissect_usbip, i32 noundef %4)
  store ptr %5, ptr @usbip_handle, align 8
  %6 = load i32, ptr @proto_usbip, align 4
  %7 = call ptr @expert_register_protocol(i32 noundef %6)
  store ptr %7, ptr %1, align 8
  %8 = load ptr, ptr %1, align 8
  call void @expert_register_field_array(ptr noundef %8, ptr noundef @proto_register_usbip.ei, i32 noundef 1)
  call void @llvm.lifetime.end.p0(i64 8, ptr %1) #5
  ret void
}