; Function Attrs: null_pointer_is_valid sspstrong uwtable
define hidden void @proto_register_usbip() local_unnamed_addr #0 {
  %1 = tail call i32 @proto_register_protocol(ptr noundef nonnull @.str.97, ptr noundef nonnull @.str.98, ptr noundef nonnull @.str.99)
  store i32 %1, ptr @proto_usbip, align 4
  tail call void @proto_register_field_array(i32 noundef %1, ptr noundef nonnull @proto_register_usbip.hf, i32 noundef 41)
  tail call void @proto_register_subtree_array(ptr noundef nonnull @proto_register_usbip.ett, i32 noundef 3)
  %2 = load i32, ptr @proto_usbip, align 4
  %3 = tail call ptr @register_dissector(ptr noundef nonnull @.str.99, ptr noundef nonnull @dissect_usbip, i32 noundef %2)
  store ptr %3, ptr @usbip_handle, align 8
  %4 = load i32, ptr @proto_usbip, align 4
  %5 = tail call ptr @expert_register_protocol(i32 noundef %4)
  tail call void @expert_register_field_array(ptr noundef %5, ptr noundef nonnull @proto_register_usbip.ei, i32 noundef 1)
  ret void
}